target datalayout = "e-m:e-p270:32:32-p271:32:32-p272:64:64-i64:64-i128:128-f80:128-n8:16:32:64-S128"
target triple = "x86_64-pc-linux-gnu"

%class.LibRaw = type { ptr, %struct.libraw_data_t, ptr, %struct.libraw_internal_data_t, [2048 x %struct.decode], ptr, ptr, [10 x %struct.tiff_ifd_t], %class.libraw_memmgr, %struct.libraw_callbacks_t, { i64, i64 }, { i64, i64 }, { i64, i64 }, ptr, ptr, ptr, i64, ptr, ptr, ptr, ptr }
%struct.libraw_data_t = type { ptr, %struct.libraw_image_sizes_t, %struct.libraw_iparams_t, %struct.libraw_lensinfo_t, %struct.libraw_makernotes_t, %struct.libraw_shootinginfo_t, %struct.libraw_output_params_t, %struct.libraw_raw_unpack_params_t, i32, i32, %struct.libraw_colordata_t, %struct.libraw_imgother_t, %struct.libraw_thumbnail_t, %struct.libraw_thumbnail_list_t, %struct.libraw_rawdata_t, ptr }
%struct.libraw_image_sizes_t = type { i16, i16, i16, i16, i16, i16, i16, i16, i32, double, i32, [8 x [4 x i32]], i16, [2 x %struct.libraw_raw_inset_crop_t] }
%struct.libraw_raw_inset_crop_t = type { i16, i16, i16, i16 }
%struct.libraw_iparams_t = type { [4 x i8], [64 x i8], [64 x i8], [64 x i8], [64 x i8], [64 x i8], i32, i32, i32, i32, i32, i32, [6 x [6 x i8]], [6 x [6 x i8]], [5 x i8], i32, ptr }
%struct.libraw_lensinfo_t = type { float, float, float, float, float, [128 x i8], [128 x i8], [128 x i8], [128 x i8], i16, %struct.libraw_nikonlens_t, %struct.libraw_dnglens_t, %struct.libraw_makernotes_lens_t }
%struct.libraw_nikonlens_t = type { float, i8, i8, i8, i8 }
%struct.libraw_dnglens_t = type { float, float, float, float }
%struct.libraw_makernotes_lens_t = type { i64, [128 x i8], i16, i16, i64, i16, i16, [64 x i8], i16, [16 x i8], [16 x i8], float, float, float, float, float, float, float, float, float, float, float, float, float, float, float, i64, [128 x i8], i64, [128 x i8], i64, [128 x i8], i16, float }
%struct.libraw_makernotes_t = type { %struct.libraw_canon_makernotes_t, %struct.libraw_nikon_makernotes_t, %struct.libraw_hasselblad_makernotes_t, %struct.libraw_fuji_info_t, %struct.libraw_olympus_makernotes_t, %struct.libraw_sony_info_t, %struct.libraw_kodak_makernotes_t, %struct.libraw_panasonic_makernotes_t, %struct.libraw_pentax_makernotes_t, %struct.libraw_p1_makernotes_t, %struct.libraw_ricoh_makernotes_t, %struct.libraw_samsung_makernotes_t, %struct.libraw_metadata_common_t }
%struct.libraw_canon_makernotes_t = type { i32, i32, i32, i32, [4 x i32], i32, [4 x i32], i16, i16, i8, i16, i16, i16, i16, i16, i16, i16, i16, i16, i16, i16, i16, i16, i32, float, i16, i16, i16, i32, i16, i32, i32, i16, i32, %struct.libraw_area_t, %struct.libraw_area_t, %struct.libraw_area_t, %struct.libraw_area_t, %struct.libraw_area_t, [2 x i16] }
%struct.libraw_area_t = type { i16, i16, i16, i16 }
%struct.libraw_nikon_makernotes_t = type { double, i16, i16, [7 x i8], i8, i8, [13 x i8], [20 x i8], [4 x i8], [4 x i8], [4 x i8], i8, i8, i8, i8, i8, [2 x i8], i8, i8, i8, i8, i8, [4 x i8], [4 x i8], i8, i16, i32, i32, i32, i32, [4 x double], i8, i8, i8, i32, i32, i32, i8, [4 x i16], i16, %struct.libraw_sensor_highspeed_crop_t, i16, i16, i16, i32, [20 x i8], [20 x i8], i32, i16, double, double, double }
%struct.libraw_sensor_highspeed_crop_t = type { i16, i16, i16, i16 }
%struct.libraw_hasselblad_makernotes_t = type { i32, double, [8 x i8], [64 x i8], [64 x i8], i32, i32, i32, i32, [32 x i8], [64 x i8], i32, [2 x i32], [2 x i32], [4 x [3 x double]] }
%struct.libraw_fuji_info_t = type { float, i16, i16, i16, i16, i16, i16, i16, i16, [33 x i8], [33 x i8], float, i16, i16, [2 x i16], i16, i32, i32, i16, [3 x i16], i16, i16, i16, i16, i16, i32, i16, [13 x i8], [5 x i8], [5 x i8], i32, i16, i32, i16, [9 x i16], [32 x i32], i32, i32, i32, [2 x float], i32 }
%struct.libraw_olympus_makernotes_t = type { [6 x i8], i16, [2 x i32], [5 x i16], i16, [2 x i16], i16, i16, [64 x i32], [5 x double], i16, i8, [3 x i16], [3 x i32], i16, i16, i16, i16, double, [4 x i16], [2 x i32], i8, i32, i16, i16 }
%struct.libraw_sony_info_t = type { i16, i8, i8, i32, i8, i32, i8, i8, i16, [2 x i16], i8, i8, i16, [10 x i8], i8, i8, [4 x i16], i16, i8, i8, i8, i16, i32, i16, [2 x i16], i16, i16, i16, i16, i16, i16, i16, i32, float, i16, i32, i32, i16, [20 x i8], i32, i16, i32, i8, i8, i16, i16, i16, i16, i16, i16, i16, i16, i16, i32, i16, [16 x i8], float }
%struct.libraw_kodak_makernotes_t = type { i16, i16, i16, i16, i16, i16, [3 x [3 x float]], [3 x [3 x float]], [3 x [3 x float]], [3 x [3 x float]], [3 x [3 x float]], [3 x [3 x float]], i16, i16, i16, i16, float, float }
%struct.libraw_panasonic_makernotes_t = type { i16, i16, [8 x float], i32, float, [3 x i32], i16, i16, i32, i32 }
%struct.libraw_pentax_makernotes_t = type { [4 x i8], [2 x i16], [2 x i16], i16, i32, i32, i16, i16, i8, i8, i16 }
%struct.libraw_p1_makernotes_t = type { [64 x i8], [64 x i8], [256 x i8], [64 x i8] }
%struct.libraw_ricoh_makernotes_t = type { i16, [2 x i32], [2 x i32], i16, i32, i32, i32, i32, i16, i16, i16, i16, i16, i16, double, double }
%struct.libraw_samsung_makernotes_t = type { [4 x i32], [4 x i32], [2 x i32], [11 x i32], double, i32, [32 x i8] }
%struct.libraw_metadata_common_t = type { float, float, float, float, float, float, float, float, float, float, float, float, float, float, float, float, i16, [128 x i8], float, [4 x %struct.libraw_afinfo_item_t], i32 }
%struct.libraw_afinfo_item_t = type { i32, i16, i32, i32, ptr }
%struct.libraw_shootinginfo_t = type { i16, i16, i16, i16, i16, i16, i16, [64 x i8], [64 x i8] }
%struct.libraw_output_params_t = type { [4 x i32], [4 x i32], [4 x double], [6 x double], [4 x float], float, float, i32, i32, i32, i32, i32, i32, i32, ptr, ptr, ptr, ptr, i32, i32, i32, i32, i32, i32, [4 x i32], i32, i32, float, float, i32, i32, i32, i32, i32, i32, i32, i32, float, float, i32, i32 }
%struct.libraw_raw_unpack_params_t = type { i32, i32, i32, i32, i32, i32, i32, float, [5 x i8], ptr }
%struct.libraw_colordata_t = type { [65536 x i16], [4104 x i32], i32, i32, i32, [4 x i64], float, float, [8 x [8 x i16]], [4 x float], [4 x float], [3 x [4 x float]], [3 x [4 x float]], [3 x [4 x float]], [4 x [3 x float]], %struct.ph1_t, float, float, [64 x i8], [64 x i8], [64 x i8], [64 x i8], [17 x i8], [64 x i8], ptr, i32, [8 x i32], [2 x %struct.libraw_dng_color_t], %struct.libraw_dng_levels_t, [256 x [4 x i32]], [64 x [5 x float]], i32, [2 x %struct.libraw_P1_color_t], i32, i32 }
%struct.ph1_t = type { i32, i32, i32, i32, i32, i32, i32, i32, float }
%struct.libraw_dng_color_t = type { i32, i16, [4 x [4 x float]], [4 x [3 x float]], [3 x [4 x float]] }
%struct.libraw_dng_levels_t = type { i32, [4104 x i32], i32, [4104 x float], float, [4 x i32], [4 x i16], [4 x float], i32, [4 x float], [4 x float], float, float }
%struct.libraw_P1_color_t = type { [9 x float] }
%struct.libraw_imgother_t = type { float, float, float, float, i64, i32, [32 x i32], %struct.libraw_gps_info_t, [512 x i8], [64 x i8], [4 x float] }
%struct.libraw_gps_info_t = type { [3 x float], [3 x float], [3 x float], float, i8, i8, i8, i8, i8 }
%struct.libraw_thumbnail_t = type { i32, i16, i16, i32, i32, ptr }
%struct.libraw_thumbnail_list_t = type { i32, [8 x %struct.libraw_thumbnail_item_t] }
%struct.libraw_thumbnail_item_t = type { i32, i16, i16, i16, i32, i32, i64 }
%struct.libraw_rawdata_t = type { ptr, ptr, ptr, ptr, ptr, ptr, ptr, ptr, ptr, %struct.libraw_iparams_t, %struct.libraw_image_sizes_t, %struct.libraw_internal_output_params_t, %struct.libraw_colordata_t }
%struct.libraw_internal_output_params_t = type { i32, i32, i32, i16, i16 }
%struct.libraw_internal_data_t = type { %struct.internal_data_t, %struct.libraw_internal_output_params_t, %struct.output_data_t, %struct.identify_data_t, %struct.unpacker_data_t }
%struct.internal_data_t = type { ptr, ptr, i32, ptr, i64, i64, [4 x i32] }
%struct.output_data_t = type { ptr, ptr }
%struct.identify_data_t = type { i32, i64, i64, i32, i32, i32 }
%struct.unpacker_data_t = type { i16, [4 x i16], [3 x i16], i32, i64, i64, i64, i64, i64, i64, i32, i32, i32, i32, i32, i32, i32, i32, i32, i32, i32, i32, i32, i32, i32, i32, i32, i64, i32, i32, i32, i32, i32, i32, i32, i32, i32, %struct.pana8_tags_t, [16 x %struct.crx_data_header_t], i32, i32, i16, i16, i32, i32, i32, i32, i32, i32, i32, [20 x i32], i16 }
%struct.pana8_tags_t = type { [6 x i32], [6 x i16], i16, [4 x i16], [17 x i16], [17 x i16], [17 x i16], i16, i16, [5 x i64], [5 x i16], [5 x i32], [5 x i16], [5 x i16] }
%struct.crx_data_header_t = type { i32, i32, i32, i32, i32, i32, i32, i32, i32, i32, i32, i32, i32, i32, i32, i64, i32, ptr, i32, i32, i32, ptr, i32, ptr }
%struct.decode = type { [2 x ptr], i32 }
%struct.tiff_ifd_t = type { i32, i32, i32, i32, i32, i32, i32, i32, i32, i32, i32, i32, i32, i32, i32, ptr, i32, ptr, i32, i32, i32, i32, i32, i32, i32, float, i64, i64, i32, [2 x %struct.libraw_dng_color_t], %struct.libraw_dng_levels_t, i32 }
%class.libraw_memmgr = type <{ ptr, i32, [4 x i8] }>
%struct.libraw_callbacks_t = type { ptr, ptr, ptr, ptr, ptr, ptr, ptr, ptr, ptr, ptr, ptr, ptr, ptr, ptr, ptr, ptr, ptr }

@.str = private unnamed_addr constant [4 x i8] c"N/A\00", align 1
@.str.4 = private unnamed_addr constant [13 x i8] c"000000000000\00", align 1
@.str.5 = private unnamed_addr constant [3 x i8] c"20\00", align 1
@.str.6 = private unnamed_addr constant [3 x i8] c"19\00", align 1

; Function Attrs: mustprogress uwtable
define noundef i32 @_ZN6LibRaw28parseLeicaInternalBodySerialEj(ptr noundef nonnull align 8 dereferenceable(767680) %0, i32 noundef %1) #1 align 2 {
  %3 = alloca i32, align 4
  %4 = alloca ptr, align 8
  %5 = alloca i32, align 4
  %6 = alloca i32, align 4
  %7 = alloca i32, align 4
  store ptr %0, ptr %4, align 8, !tbaa !6
  store i32 %1, ptr %5, align 4, !tbaa !11
  %8 = load ptr, ptr %4, align 8
  %9 = load i32, ptr %5, align 4, !tbaa !11
  %10 = icmp ne i32 %9, 0
  br i1 %10, label %17, label %11

11:                                               ; preds = %2
  %12 = getelementptr inbounds nuw %class.LibRaw, ptr %8, i32 0, i32 1
  %13 = getelementptr inbounds nuw %struct.libraw_data_t, ptr %12, i32 0, i32 5
  %14 = getelementptr inbounds nuw %struct.libraw_shootinginfo_t, ptr %13, i32 0, i32 8
  %15 = getelementptr inbounds [64 x i8], ptr %14, i64 0, i64 0
  %16 = call ptr @strcpy(ptr noundef %15, ptr noundef @.str) #9
  store i32 0, ptr %3, align 4
  br label %176

17:                                               ; preds = %2
  %18 = getelementptr inbounds nuw %class.LibRaw, ptr %8, i32 0, i32 1
  %19 = getelementptr inbounds nuw %struct.libraw_data_t, ptr %18, i32 0, i32 5
  %20 = getelementptr inbounds nuw %struct.libraw_shootinginfo_t, ptr %19, i32 0, i32 8
  %21 = getelementptr inbounds [64 x i8], ptr %20, i64 0, i64 0
  %22 = load i32, ptr %5, align 4, !tbaa !11
  %23 = zext i32 %22 to i64
  %24 = icmp ult i64 %23, 64
  br i1 %24, label %25, label %28

25:                                               ; preds = %17
  %26 = load i32, ptr %5, align 4, !tbaa !11
  %27 = zext i32 %26 to i64
  br label %29

28:                                               ; preds = %17
  br label %29

29:                                               ; preds = %28, %25
  %30 = phi i64 [ %27, %25 ], [ 64, %28 ]
  %31 = getelementptr inbounds nuw %class.LibRaw, ptr %8, i32 0, i32 3
  %32 = getelementptr inbounds nuw %struct.libraw_internal_data_t, ptr %31, i32 0, i32 0
  %33 = getelementptr inbounds nuw %struct.internal_data_t, ptr %32, i32 0, i32 0
  %34 = load ptr, ptr %33, align 8, !tbaa !80
  %35 = call noundef i32 @_ZN6LibRaw6streadEPcmP26LibRaw_abstract_datastream(ptr noundef %21, i64 noundef %30, ptr noundef %34)
  %36 = getelementptr inbounds nuw %class.LibRaw, ptr %8, i32 0, i32 1
  %37 = getelementptr inbounds nuw %struct.libraw_data_t, ptr %36, i32 0, i32 5
  %38 = getelementptr inbounds nuw %struct.libraw_shootinginfo_t, ptr %37, i32 0, i32 8
  %39 = getelementptr inbounds [64 x i8], ptr %38, i64 0, i64 0
  %40 = call i32 @strncmp(ptr noundef %39, ptr noundef @.str.4, i64 noundef 12) #10
  %41 = icmp ne i32 %40, 0
  br i1 %41, label %51, label %42

42:                                               ; preds = %29
  %43 = getelementptr inbounds nuw %class.LibRaw, ptr %8, i32 0, i32 1
  %44 = getelementptr inbounds nuw %struct.libraw_data_t, ptr %43, i32 0, i32 5
  %45 = getelementptr inbounds nuw %struct.libraw_shootinginfo_t, ptr %44, i32 0, i32 8
  %46 = getelementptr inbounds [64 x i8], ptr %45, i64 0, i64 0
  store i8 48, ptr %46, align 2, !tbaa !75
  %47 = getelementptr inbounds nuw %class.LibRaw, ptr %8, i32 0, i32 1
  %48 = getelementptr inbounds nuw %struct.libraw_data_t, ptr %47, i32 0, i32 5
  %49 = getelementptr inbounds nuw %struct.libraw_shootinginfo_t, ptr %48, i32 0, i32 8
  %50 = getelementptr inbounds [64 x i8], ptr %49, i64 0, i64 1
  store i8 0, ptr %50, align 1, !tbaa !75
  store i32 1, ptr %3, align 4
  br label %176

51:                                               ; preds = %29
  %52 = getelementptr inbounds nuw %class.LibRaw, ptr %8, i32 0, i32 1
  %53 = getelementptr inbounds nuw %struct.libraw_data_t, ptr %52, i32 0, i32 5
  %54 = getelementptr inbounds nuw %struct.libraw_shootinginfo_t, ptr %53, i32 0, i32 8
  %55 = getelementptr inbounds [64 x i8], ptr %54, i64 0, i64 0
  %56 = load i32, ptr %5, align 4, !tbaa !11
  %57 = zext i32 %56 to i64
  %58 = call noundef i64 @_ZN6LibRaw7strnlenEPKcm(ptr noundef %55, i64 noundef %57)
  %59 = icmp eq i64 %58, 13
  br i1 %59, label %60, label %174

60:                                               ; preds = %51
  call void @llvm.lifetime.start.p0(i64 4, ptr %6) #9
  store i32 3, ptr %6, align 4, !tbaa !11
  br label %61

61:                                               ; preds = %78, %60
  %62 = load i32, ptr %6, align 4, !tbaa !11
  %63 = icmp slt i32 %62, 13
  br i1 %63, label %65, label %64

64:                                               ; preds = %61
  store i32 2, ptr %7, align 4
  br label %81

65:                                               ; preds = %61
  %66 = getelementptr inbounds nuw %class.LibRaw, ptr %8, i32 0, i32 1
  %67 = getelementptr inbounds nuw %struct.libraw_data_t, ptr %66, i32 0, i32 5
  %68 = getelementptr inbounds nuw %struct.libraw_shootinginfo_t, ptr %67, i32 0, i32 8
  %69 = load i32, ptr %6, align 4, !tbaa !11
  %70 = sext i32 %69 to i64
  %71 = getelementptr inbounds [64 x i8], ptr %68, i64 0, i64 %70
  %72 = load i8, ptr %71, align 1, !tbaa !75
  %73 = sext i8 %72 to i32
  %74 = call i32 @isdigit(i32 noundef %73) #10
  %75 = icmp ne i32 %74, 0
  br i1 %75, label %77, label %76

76:                                               ; preds = %65
  store i32 5, ptr %7, align 4
  br label %81

77:                                               ; preds = %65
  br label %78

78:                                               ; preds = %77
  %79 = load i32, ptr %6, align 4, !tbaa !11
  %80 = add nsw i32 %79, 1
  store i32 %80, ptr %6, align 4, !tbaa !11
  br label %61, !llvm.loop !81

81:                                               ; preds = %76, %64
  call void @llvm.lifetime.end.p0(i64 4, ptr %6) #9
  %82 = load i32, ptr %7, align 4
  switch i32 %82, label %178 [
    i32 2, label %83
    i32 5, label %175
  ]

83:                                               ; preds = %81
  %84 = getelementptr inbounds nuw %class.LibRaw, ptr %8, i32 0, i32 1
  %85 = getelementptr inbounds nuw %struct.libraw_data_t, ptr %84, i32 0, i32 5
  %86 = getelementptr inbounds nuw %struct.libraw_shootinginfo_t, ptr %85, i32 0, i32 8
  %87 = getelementptr inbounds [64 x i8], ptr %86, i64 0, i64 0
  %88 = getelementptr inbounds i8, ptr %87, i64 15
  %89 = getelementptr inbounds nuw %class.LibRaw, ptr %8, i32 0, i32 1
  %90 = getelementptr inbounds nuw %struct.libraw_data_t, ptr %89, i32 0, i32 5
  %91 = getelementptr inbounds nuw %struct.libraw_shootinginfo_t, ptr %90, i32 0, i32 8
  %92 = getelementptr inbounds [64 x i8], ptr %91, i64 0, i64 0
  %93 = getelementptr inbounds i8, ptr %92, i64 9
  call void @llvm.memcpy.p0.p0.i64(ptr align 1 %88, ptr align 1 %93, i64 4, i1 false)
  %94 = getelementptr inbounds nuw %class.LibRaw, ptr %8, i32 0, i32 1
  %95 = getelementptr inbounds nuw %struct.libraw_data_t, ptr %94, i32 0, i32 5
  %96 = getelementptr inbounds nuw %struct.libraw_shootinginfo_t, ptr %95, i32 0, i32 8
  %97 = getelementptr inbounds [64 x i8], ptr %96, i64 0, i64 0
  %98 = getelementptr inbounds i8, ptr %97, i64 12
  %99 = getelementptr inbounds nuw %class.LibRaw, ptr %8, i32 0, i32 1
  %100 = getelementptr inbounds nuw %struct.libraw_data_t, ptr %99, i32 0, i32 5
  %101 = getelementptr inbounds nuw %struct.libraw_shootinginfo_t, ptr %100, i32 0, i32 8
  %102 = getelementptr inbounds [64 x i8], ptr %101, i64 0, i64 0
  %103 = getelementptr inbounds i8, ptr %102, i64 7
  call void @llvm.memcpy.p0.p0.i64(ptr align 1 %98, ptr align 1 %103, i64 2, i1 false)
  %104 = getelementptr inbounds nuw %class.LibRaw, ptr %8, i32 0, i32 1
  %105 = getelementptr inbounds nuw %struct.libraw_data_t, ptr %104, i32 0, i32 5
  %106 = getelementptr inbounds nuw %struct.libraw_shootinginfo_t, ptr %105, i32 0, i32 8
  %107 = getelementptr inbounds [64 x i8], ptr %106, i64 0, i64 0
  %108 = getelementptr inbounds i8, ptr %107, i64 9
  %109 = getelementptr inbounds nuw %class.LibRaw, ptr %8, i32 0, i32 1
  %110 = getelementptr inbounds nuw %struct.libraw_data_t, ptr %109, i32 0, i32 5
  %111 = getelementptr inbounds nuw %struct.libraw_shootinginfo_t, ptr %110, i32 0, i32 8
  %112 = getelementptr inbounds [64 x i8], ptr %111, i64 0, i64 0
  %113 = getelementptr inbounds i8, ptr %112, i64 5
  call void @llvm.memcpy.p0.p0.i64(ptr align 1 %108, ptr align 1 %113, i64 2, i1 false)
  %114 = getelementptr inbounds nuw %class.LibRaw, ptr %8, i32 0, i32 1
  %115 = getelementptr inbounds nuw %struct.libraw_data_t, ptr %114, i32 0, i32 5
  %116 = getelementptr inbounds nuw %struct.libraw_shootinginfo_t, ptr %115, i32 0, i32 8
  %117 = getelementptr inbounds [64 x i8], ptr %116, i64 0, i64 0
  %118 = getelementptr inbounds i8, ptr %117, i64 6
  %119 = getelementptr inbounds nuw %class.LibRaw, ptr %8, i32 0, i32 1
  %120 = getelementptr inbounds nuw %struct.libraw_data_t, ptr %119, i32 0, i32 5
  %121 = getelementptr inbounds nuw %struct.libraw_shootinginfo_t, ptr %120, i32 0, i32 8
  %122 = getelementptr inbounds [64 x i8], ptr %121, i64 0, i64 0
  %123 = getelementptr inbounds i8, ptr %122, i64 3
  call void @llvm.memcpy.p0.p0.i64(ptr align 1 %118, ptr align 1 %123, i64 2, i1 false)
  %124 = getelementptr inbounds nuw %class.LibRaw, ptr %8, i32 0, i32 1
  %125 = getelementptr inbounds nuw %struct.libraw_data_t, ptr %124, i32 0, i32 5
  %126 = getelementptr inbounds nuw %struct.libraw_shootinginfo_t, ptr %125, i32 0, i32 8
  %127 = getelementptr inbounds [64 x i8], ptr %126, i64 0, i64 14
  store i8 32, ptr %127, align 2, !tbaa !75
  %128 = getelementptr inbounds nuw %class.LibRaw, ptr %8, i32 0, i32 1
  %129 = getelementptr inbounds nuw %struct.libraw_data_t, ptr %128, i32 0, i32 5
  %130 = getelementptr inbounds nuw %struct.libraw_shootinginfo_t, ptr %129, i32 0, i32 8
  %131 = getelementptr inbounds [64 x i8], ptr %130, i64 0, i64 3
  store i8 32, ptr %131, align 1, !tbaa !75
  %132 = getelementptr inbounds nuw %class.LibRaw, ptr %8, i32 0, i32 1
  %133 = getelementptr inbounds nuw %struct.libraw_data_t, ptr %132, i32 0, i32 5
  %134 = getelementptr inbounds nuw %struct.libraw_shootinginfo_t, ptr %133, i32 0, i32 8
  %135 = getelementptr inbounds [64 x i8], ptr %134, i64 0, i64 11
  store i8 47, ptr %135, align 1, !tbaa !75
  %136 = getelementptr inbounds nuw %class.LibRaw, ptr %8, i32 0, i32 1
  %137 = getelementptr inbounds nuw %struct.libraw_data_t, ptr %136, i32 0, i32 5
  %138 = getelementptr inbounds nuw %struct.libraw_shootinginfo_t, ptr %137, i32 0, i32 8
  %139 = getelementptr inbounds [64 x i8], ptr %138, i64 0, i64 8
  store i8 47, ptr %139, align 2, !tbaa !75
  %140 = getelementptr inbounds nuw %class.LibRaw, ptr %8, i32 0, i32 1
  %141 = getelementptr inbounds nuw %struct.libraw_data_t, ptr %140, i32 0, i32 5
  %142 = getelementptr inbounds nuw %struct.libraw_shootinginfo_t, ptr %141, i32 0, i32 8
  %143 = getelementptr inbounds [64 x i8], ptr %142, i64 0, i64 3
  %144 = load i8, ptr %143, align 1, !tbaa !75
  %145 = sext i8 %144 to i32
  %146 = sub nsw i32 %145, 48
  %147 = trunc i32 %146 to i16
  %148 = sext i16 %147 to i32
  %149 = mul nsw i32 %148, 10
  %150 = getelementptr inbounds nuw %class.LibRaw, ptr %8, i32 0, i32 1
  %151 = getelementptr inbounds nuw %struct.libraw_data_t, ptr %150, i32 0, i32 5
  %152 = getelementptr inbounds nuw %struct.libraw_shootinginfo_t, ptr %151, i32 0, i32 8
  %153 = getelementptr inbounds [64 x i8], ptr %152, i64 0, i64 4
  %154 = load i8, ptr %153, align 2, !tbaa !75
  %155 = sext i8 %154 to i32
  %156 = sub nsw i32 %155, 48
  %157 = trunc i32 %156 to i16
  %158 = sext i16 %157 to i32
  %159 = add nsw i32 %149, %158
  %160 = icmp slt i32 %159, 70
  br i1 %160, label %161, label %167

161:                                              ; preds = %83
  %162 = getelementptr inbounds nuw %class.LibRaw, ptr %8, i32 0, i32 1
  %163 = getelementptr inbounds nuw %struct.libraw_data_t, ptr %162, i32 0, i32 5
  %164 = getelementptr inbounds nuw %struct.libraw_shootinginfo_t, ptr %163, i32 0, i32 8
  %165 = getelementptr inbounds [64 x i8], ptr %164, i64 0, i64 0
  %166 = getelementptr inbounds i8, ptr %165, i64 4
  call void @llvm.memcpy.p0.p0.i64(ptr align 1 %166, ptr align 1 @.str.5, i64 2, i1 false)
  br label %173

167:                                              ; preds = %83
  %168 = getelementptr inbounds nuw %class.LibRaw, ptr %8, i32 0, i32 1
  %169 = getelementptr inbounds nuw %struct.libraw_data_t, ptr %168, i32 0, i32 5
  %170 = getelementptr inbounds nuw %struct.libraw_shootinginfo_t, ptr %169, i32 0, i32 8
  %171 = getelementptr inbounds [64 x i8], ptr %170, i64 0, i64 0
  %172 = getelementptr inbounds i8, ptr %171, i64 4
  call void @llvm.memcpy.p0.p0.i64(ptr align 1 %172, ptr align 1 @.str.6, i64 2, i1 false)
  br label %173

173:                                              ; preds = %167, %161
  store i32 2, ptr %3, align 4
  br label %176

174:                                              ; preds = %51
  br label %175

175:                                              ; preds = %174, %81
  store i32 1, ptr %3, align 4
  br label %176

176:                                              ; preds = %175, %173, %42, %11
  %177 = load i32, ptr %3, align 4
  ret i32 %177

178:                                              ; preds = %81
  unreachable
}