; Function Attrs: mustprogress uwtable
define noundef range(i32 0, 3) i32 @_ZN6LibRaw28parseLeicaInternalBodySerialEj(ptr noundef nonnull align 8 dereferenceable(767680) %0, i32 noundef %1) local_unnamed_addr #1 align 2 {
  %.not = icmp eq i32 %1, 0
  %3 = getelementptr inbounds nuw i8, ptr %0, i64 5078
  br i1 %.not, label %4, label %5

4:                                                ; preds = %2
  store i32 4271950, ptr %3, align 2
  br label %.loopexit

5:                                                ; preds = %2
  %6 = zext i32 %1 to i64
  %7 = tail call i64 @llvm.umin.i64(i64 %6, i64 64)
  %8 = getelementptr inbounds nuw i8, ptr %0, i64 381416
  %9 = load ptr, ptr %8, align 8, !tbaa !77
  %10 = tail call noundef i32 @_ZN6LibRaw6streadEPcmP26LibRaw_abstract_datastream(ptr noundef nonnull %3, i64 noundef %7, ptr noundef %9)
  %bcmp = tail call i32 @bcmp(ptr noundef nonnull dereferenceable(12) %3, ptr noundef nonnull dereferenceable(12) @.str.4, i64 12)
  %.not12 = icmp eq i32 %bcmp, 0
  br i1 %.not12, label %11, label %13

11:                                               ; preds = %5
  store i8 48, ptr %3, align 2, !tbaa !72
  %12 = getelementptr inbounds nuw i8, ptr %0, i64 5079
  store i8 0, ptr %12, align 1, !tbaa !72
  br label %.loopexit

13:                                               ; preds = %5
  %14 = tail call noundef i64 @_ZN6LibRaw7strnlenEPKcm(ptr noundef nonnull %3, i64 noundef %6)
  %15 = icmp eq i64 %14, 13
  br i1 %15, label %.preheader, label %.loopexit

16:                                               ; preds = %.preheader
  %indvars.iv.next = add nuw nsw i64 %indvars.iv, 1
  %exitcond.not = icmp eq i64 %indvars.iv.next, 13
  br i1 %exitcond.not, label %20, label %.preheader, !llvm.loop !78

.preheader:                                       ; preds = %13, %16
  %indvars.iv = phi i64 [ %indvars.iv.next, %16 ], [ 3, %13 ]
  %17 = getelementptr inbounds nuw [64 x i8], ptr %3, i64 0, i64 %indvars.iv
  %18 = load i8, ptr %17, align 1, !tbaa !72
  %19 = sext i8 %18 to i32
  %isdigittmp = add nsw i32 %19, -48
  %isdigit = icmp ult i32 %isdigittmp, 10
  br i1 %isdigit, label %16, label %.loopexit

20:                                               ; preds = %16
  %21 = getelementptr inbounds nuw i8, ptr %0, i64 5093
  %22 = getelementptr inbounds nuw i8, ptr %0, i64 5087
  %23 = load i32, ptr %22, align 1
  store i32 %23, ptr %21, align 1
  %24 = getelementptr inbounds nuw i8, ptr %0, i64 5090
  %25 = getelementptr inbounds nuw i8, ptr %0, i64 5085
  %26 = load i16, ptr %25, align 1
  store i16 %26, ptr %24, align 2
  %27 = getelementptr inbounds nuw i8, ptr %0, i64 5083
  %28 = load i16, ptr %27, align 1
  store i16 %28, ptr %22, align 1
  %29 = getelementptr inbounds nuw i8, ptr %0, i64 5084
  %30 = getelementptr inbounds nuw i8, ptr %0, i64 5081
  %31 = load i16, ptr %30, align 1
  store i16 %31, ptr %29, align 4
  %32 = getelementptr inbounds nuw i8, ptr %0, i64 5092
  store i8 32, ptr %32, align 4, !tbaa !72
  store i8 32, ptr %30, align 1, !tbaa !72
  %33 = getelementptr inbounds nuw i8, ptr %0, i64 5089
  store i8 47, ptr %33, align 1, !tbaa !72
  %34 = getelementptr inbounds nuw i8, ptr %0, i64 5086
  store i8 47, ptr %34, align 2, !tbaa !72
  %35 = getelementptr inbounds nuw i8, ptr %0, i64 5082
  store i16 12338, ptr %35, align 2
  br label %.loopexit

.loopexit:                                        ; preds = %.preheader, %13, %20, %11, %4
  %.010 = phi i32 [ 2, %20 ], [ 1, %11 ], [ 0, %4 ], [ 1, %13 ], [ 1, %.preheader ]
  ret i32 %.010
}